; Function Attrs: nounwind uwtable
define noalias noundef ptr @Nwk_ManGraphAlloc(i32 noundef %0) local_unnamed_addr #0 {
  %calloc = tail call dereferenceable_or_null(224) ptr @calloc(i64 1, i64 224)
  %2 = getelementptr inbounds nuw i8, ptr %calloc, i64 4
  store i32 %0, ptr %2, align 4, !tbaa !3
  %3 = mul nsw i32 %0, 3
  %4 = add i32 %3, -1
  br label %.loopexit.i

.loopexit.i:                                      ; preds = %.loopexit.i.backedge, %1
  %.012.i = phi i32 [ %4, %1 ], [ %5, %.loopexit.i.backedge ]
  %5 = add i32 %.012.i, 1
  %6 = and i32 %.012.i, 1
  %.not.not.i = icmp eq i32 %6, 0
  br i1 %.not.not.i, label %.preheader.i, label %.loopexit.i.backedge

.loopexit.i.backedge:                             ; preds = %.lr.ph.i, %.loopexit.i
  br label %.loopexit.i, !llvm.loop !15

.preheader.i:                                     ; preds = %.loopexit.i
  %.not15.i = icmp ult i32 %5, 9
  br i1 %.not15.i, label %Abc_PrimeCudd.exit, label %.lr.ph.i

7:                                                ; preds = %.lr.ph.i
  %8 = add nuw nsw i32 %.01116.i, 2
  %9 = mul nuw nsw i32 %8, %8
  %.not.i = icmp ugt i32 %9, %5
  br i1 %.not.i, label %Abc_PrimeCudd.exit, label %.lr.ph.i, !llvm.loop !17

.lr.ph.i:                                         ; preds = %.preheader.i, %7
  %.01116.i = phi i32 [ %8, %7 ], [ 3, %.preheader.i ]
  %10 = urem i32 %5, %.01116.i
  %11 = icmp eq i32 %10, 0
  br i1 %11, label %.loopexit.i.backedge, label %7, !llvm.loop !15

Abc_PrimeCudd.exit:                               ; preds = %.preheader.i, %7
  %12 = getelementptr inbounds nuw i8, ptr %calloc, i64 8
  store i32 %5, ptr %12, align 8, !tbaa !18
  %13 = sext i32 %5 to i64
  %14 = tail call noalias ptr @calloc(i64 noundef %13, i64 noundef 8) #19
  %15 = getelementptr inbounds nuw i8, ptr %calloc, i64 16
  store ptr %14, ptr %15, align 8, !tbaa !19
  %16 = tail call ptr @Aig_MmFixedStart(i32 noundef 16, i32 noundef %5) #20
  %17 = getelementptr inbounds nuw i8, ptr %calloc, i64 24
  store ptr %16, ptr %17, align 8, !tbaa !20
  %18 = tail call noalias dereferenceable_or_null(16) ptr @malloc(i64 noundef 16) #21
  %19 = getelementptr inbounds nuw i8, ptr %18, i64 4
  store i32 0, ptr %19, align 4, !tbaa !21
  store i32 1000, ptr %18, align 8, !tbaa !23
  %20 = tail call noalias dereferenceable_or_null(4000) ptr @malloc(i64 noundef 4000) #21
  %21 = getelementptr inbounds nuw i8, ptr %18, i64 8
  store ptr %20, ptr %21, align 8, !tbaa !24
  %22 = getelementptr inbounds nuw i8, ptr %calloc, i64 192
  store ptr %18, ptr %22, align 8, !tbaa !25
  ret ptr %calloc
}